; Function Attrs: mustprogress uwtable
define hidden void @_ZN11cmd_context10set_cancelEb(ptr noundef nonnull align 8 dereferenceable(872) %this, i1 noundef zeroext %f) local_unnamed_addr #4 align 2 {
entry:
  %m_manager.i = getelementptr inbounds i8, ptr %this, i64 296
  %0 = load ptr, ptr %m_manager.i, align 8
  %cmp.i.not = icmp eq ptr %0, null
  br i1 %cmp.i.not, label %if.end7, label %if.then

if.then:                                          ; preds = %entry
  tail call void @_ZN11cmd_context12init_managerEv(ptr noundef nonnull align 8 dereferenceable(872) %this)
  %1 = load ptr, ptr %m_manager.i, align 8
  br i1 %f, label %if.then2, label %if.else

if.then2:                                         ; preds = %if.then
  tail call void @_ZN8reslimit6cancelEv(ptr noundef nonnull align 8 dereferenceable(40) %1)
  br label %if.end7

if.else:                                          ; preds = %if.then
  tail call void @_ZN8reslimit12reset_cancelEv(ptr noundef nonnull align 8 dereferenceable(40) %1)
  br label %if.end7

if.end7:                                          ; preds = %if.then2, %if.else, %entry
  ret void
}